target datalayout = "e-m:e-p270:32:32-p271:32:32-p272:64:64-i64:64-i128:128-f80:128-n8:16:32:64-S128"
target triple = "x86_64-pc-linux-gnu"

@H5_libinit_g = external global i8, align 1
@H5_libterm_g = external global i8, align 1
@H5T_NATIVE_UCHAR_g = external global i64, align 8

; Function Attrs: nounwind uwtable
define i32 @H5IMread_image(i64 noundef %0, ptr noundef %1, ptr noundef %2) #0 {
  %4 = alloca i32, align 4
  %5 = alloca i64, align 8
  %6 = alloca ptr, align 8
  %7 = alloca ptr, align 8
  %8 = alloca i64, align 8
  %9 = alloca i32, align 4
  store i64 %0, ptr %5, align 8, !tbaa !3
  store ptr %1, ptr %6, align 8, !tbaa !7
  store ptr %2, ptr %7, align 8, !tbaa !7
  call void @llvm.lifetime.start.p0(i64 8, ptr %8) #7
  %10 = load ptr, ptr %6, align 8, !tbaa !7
  %11 = icmp eq ptr %10, null
  br i1 %11, label %12, label %13

12:                                               ; preds = %3
  store i32 -1, ptr %4, align 4
  store i32 1, ptr %9, align 4
  br label %53

13:                                               ; preds = %3
  %14 = load i64, ptr %5, align 8, !tbaa !3
  %15 = load ptr, ptr %6, align 8, !tbaa !7
  %16 = call i64 @H5Dopen2(i64 noundef %14, ptr noundef %15, i64 noundef 0)
  store i64 %16, ptr %8, align 8, !tbaa !3
  %17 = icmp slt i64 %16, 0
  br i1 %17, label %18, label %19

18:                                               ; preds = %13
  store i32 -1, ptr %4, align 4
  store i32 1, ptr %9, align 4
  br label %53

19:                                               ; preds = %13
  %20 = load i64, ptr %8, align 8, !tbaa !3
  %21 = load i8, ptr @H5_libinit_g, align 1, !tbaa !10, !range !12, !noundef !13
  %22 = trunc i8 %21 to i1
  br i1 %22, label %27, label %23

23:                                               ; preds = %19
  %24 = load i8, ptr @H5_libterm_g, align 1, !tbaa !10, !range !12, !noundef !13
  %25 = trunc i8 %24 to i1
  %26 = xor i1 %25, true
  br label %27

27:                                               ; preds = %23, %19
  %28 = phi i1 [ false, %19 ], [ %26, %23 ]
  %29 = xor i1 %28, true
  %30 = xor i1 %29, true
  %31 = zext i1 %30 to i32
  %32 = sext i32 %31 to i64
  %33 = call i64 @llvm.expect.i64(i64 %32, i64 0)
  %34 = icmp ne i64 %33, 0
  br i1 %34, label %35, label %37

35:                                               ; preds = %27
  %36 = call i32 @H5open()
  br label %38

37:                                               ; preds = %27
  br label %38

38:                                               ; preds = %37, %35
  %39 = load i64, ptr @H5T_NATIVE_UCHAR_g, align 8, !tbaa !3
  %40 = load ptr, ptr %7, align 8, !tbaa !7
  %41 = call i32 @H5Dread(i64 noundef %20, i64 noundef %39, i64 noundef 0, i64 noundef 0, i64 noundef 0, ptr noundef %40)
  %42 = icmp slt i32 %41, 0
  br i1 %42, label %43, label %44

43:                                               ; preds = %38
  br label %50

44:                                               ; preds = %38
  %45 = load i64, ptr %8, align 8, !tbaa !3
  %46 = call i32 @H5Dclose(i64 noundef %45)
  %47 = icmp ne i32 %46, 0
  br i1 %47, label %48, label %49

48:                                               ; preds = %44
  store i32 -1, ptr %4, align 4
  store i32 1, ptr %9, align 4
  br label %53

49:                                               ; preds = %44
  store i32 0, ptr %4, align 4
  store i32 1, ptr %9, align 4
  br label %53

50:                                               ; preds = %43
  %51 = load i64, ptr %8, align 8, !tbaa !3
  %52 = call i32 @H5Dclose(i64 noundef %51)
  store i32 -1, ptr %4, align 4
  store i32 1, ptr %9, align 4
  br label %53

53:                                               ; preds = %50, %49, %48, %18, %12
  call void @llvm.lifetime.end.p0(i64 8, ptr %8) #7
  %54 = load i32, ptr %4, align 4
  ret i32 %54
}