; Function Attrs: nounwind uwtable
define range(i32 -1, 1) i32 @H5IMread_image(i64 noundef %0, ptr noundef %1, ptr noundef %2) local_unnamed_addr #0 {
  %4 = icmp eq ptr %1, null
  br i1 %4, label %22, label %5

5:                                                ; preds = %3
  %6 = tail call i64 @H5Dopen2(i64 noundef %0, ptr noundef nonnull %1, i64 noundef 0) #8
  %7 = icmp slt i64 %6, 0
  br i1 %7, label %22, label %8

8:                                                ; preds = %5
  %9 = load i8, ptr @H5_libinit_g, align 1, !tbaa !7, !range !9, !noundef !10
  %10 = trunc nuw i8 %9 to i1
  %11 = load i8, ptr @H5_libterm_g, align 1, !range !9
  %12 = trunc nuw i8 %11 to i1
  %13 = select i1 %10, i1 true, i1 %12
  br i1 %13, label %16, label %14, !prof !11

14:                                               ; preds = %8
  %15 = tail call i32 @H5open() #8
  br label %16

16:                                               ; preds = %8, %14
  %17 = load i64, ptr @H5T_NATIVE_UCHAR_g, align 8, !tbaa !3
  %18 = tail call i32 @H5Dread(i64 noundef %6, i64 noundef %17, i64 noundef 0, i64 noundef 0, i64 noundef 0, ptr noundef %2) #8
  %19 = icmp slt i32 %18, 0
  %20 = tail call i32 @H5Dclose(i64 noundef %6) #8
  br i1 %19, label %22, label %21

21:                                               ; preds = %16
  %.not = icmp ne i32 %20, 0
  %. = sext i1 %.not to i32
  br label %22

22:                                               ; preds = %16, %21, %5, %3
  %.0 = phi i32 [ -1, %3 ], [ -1, %5 ], [ %., %21 ], [ -1, %16 ]
  ret i32 %.0
}